; Function Attrs: mustprogress nofree norecurse nosync nounwind memory(read, argmem: readwrite, inaccessiblemem: none) uwtable
define hidden noundef zeroext i1 @_ZNK5ceres14SubsetManifold4PlusEPKdS2_Pd(ptr nocapture noundef nonnull readonly align 8 dereferenceable(56) %0, ptr nocapture noundef readonly %1, ptr nocapture noundef readonly %2, ptr nocapture noundef writeonly %3) unnamed_addr #8 align 2 personality ptr @__gxx_personality_v0 {
  %5 = getelementptr inbounds i8, ptr %0, i64 16
  %6 = getelementptr inbounds i8, ptr %0, i64 32
  %7 = load ptr, ptr %6, align 8
  %8 = getelementptr inbounds i8, ptr %0, i64 40
  %9 = load i32, ptr %8, align 8
  %10 = load ptr, ptr %5, align 8
  %11 = ptrtoint ptr %7 to i64
  %12 = ptrtoint ptr %10 to i64
  %13 = sub i64 %11, %12
  %.tr.i = trunc i64 %13 to i32
  %14 = shl i32 %.tr.i, 3
  %15 = add i32 %14, %9
  %16 = icmp sgt i32 %15, 0
  br i1 %16, label %.lr.ph.preheader, label %._crit_edge

.lr.ph.preheader:                                 ; preds = %4
  %17 = zext nneg i32 %15 to i64
  br label %.lr.ph

.lr.ph:                                           ; preds = %.lr.ph.preheader, %33
  %indvars.iv = phi i64 [ 0, %.lr.ph.preheader ], [ %indvars.iv.next, %33 ]
  %.016 = phi i32 [ 0, %.lr.ph.preheader ], [ %.1, %33 ]
  %18 = load ptr, ptr %5, align 8
  %19 = lshr i64 %indvars.iv, 6
  %.zext = and i64 %19, 67108863
  %20 = getelementptr inbounds i64, ptr %18, i64 %.zext
  %21 = and i64 %indvars.iv, 63
  %22 = shl nuw i64 1, %21
  %23 = load i64, ptr %20, align 8
  %24 = and i64 %23, %22
  %.not = icmp eq i64 %24, 0
  %25 = getelementptr inbounds double, ptr %1, i64 %indvars.iv
  %26 = load double, ptr %25, align 8
  br i1 %.not, label %27, label %33

27:                                               ; preds = %.lr.ph
  %28 = add nsw i32 %.016, 1
  %29 = sext i32 %.016 to i64
  %30 = getelementptr inbounds double, ptr %2, i64 %29
  %31 = load double, ptr %30, align 8
  %32 = fadd double %26, %31
  br label %33

33:                                               ; preds = %.lr.ph, %27
  %.sink = phi double [ %32, %27 ], [ %26, %.lr.ph ]
  %.1 = phi i32 [ %28, %27 ], [ %.016, %.lr.ph ]
  %34 = getelementptr inbounds double, ptr %3, i64 %indvars.iv
  store double %.sink, ptr %34, align 8
  %indvars.iv.next = add nuw nsw i64 %indvars.iv, 1
  %35 = icmp ult i64 %indvars.iv.next, %17
  br i1 %35, label %.lr.ph, label %._crit_edge, !llvm.loop !12

._crit_edge:                                      ; preds = %33, %4
  ret i1 true
}